(iConfigParser
ConfigParser
p1
(dp2
S'_optcre'
p3
cre
_compile
p4
(S'(?P<option>[^:=\\s][^:=]*)\\s*(?P<vi>[:=])\\s*(?P<value>.*)$'
p5
I0
tRp6
sS'_defaults'
p7
ccollections
OrderedDict
p8
((ltRp9
sS'_sections'
p10
g8
((lp11
(lp12
S'pipeline'
p13
ag8
((lp14
(lp15
S'__name__'
p16
ag13
aa(lp17
S'data_path'
p18
aS'simuCLASS/'
p19
aa(lp20
S'project_name'
p21
aS'emerlin-trecs-simu'
p22
aa(lp23
S'doskymodel'
p24
aS'False'
p25
aa(lp26
S'dosimdata'
p27
aS'True'
p28
aa(lp29
S'doimagedata'
p30
aS'False'
p31
aatRp32
aa(lp33
S'observation'
p34
ag8
((lp35
(lp36
g16
ag34
aa(lp37
S'telescope'
p38
aS'e-merlin'
p39
aa(lp40
S'uvcoverage'
p41
aS'simulate'
p42
aa(lp43
S'uvcoverage_ms_file'
p44
aS'emerlin-4day-m27.ms'
p45
aa(lp46
S'lowest_frequency'
p47
aS'1.254463e9'
p48
aa(lp49
S'total_bandwidth'
p50
aS'512e6'
p51
aa(lp52
S'channel_width'
p53
aS'125e3'
p54
aa(lp55
S'channel_separation'
p56
aS'125e3'
p57
aa(lp58
S'n_channels'
p59
aS'512'
p60
aa(lp61
S'n_ifs'
p62
aS'8'
aa(lp63
S't_int'
p64
aS'2'
aa(lp65
S'observation_time'
p66
aS'360000'
p67
aa(lp68
S'noisemode'
p69
aS'uniform'
p70
aa(lp71
S'noise_file'
p72
aS'superclass/rms_1022+6812_30122014.p'
p73
aa(lp74
S'uniform_noise'
p75
aS'0.4'
p76
aatRp77
aa(lp78
S'aips'
p79
ag8
((lp80
(lp81
g16
ag79
aa(lp82
S'aipsnumber'
p83
aS'4647'
p84
aa(lp85
S'indisk'
p86
aS'1'
aa(lp87
S'clear_aips'
p88
aS'True'
p89
aatRp90
aa(lp91
S'field'
p92
ag8
((lp93
(lp94
g16
ag92
aa(lp95
S'name'
p96
aS'testfield'
p97
aa(lp98
S'fitsname'
p99
aS't-recs-simulations-image.fits'
p100
aa(lp101
S'field_ra'
p102
aS'00:00:00'
p103
aa(lp104
S'field_dec'
p105
aS'00:00:00'
p106
aa(lp107
S'catalogue'
p108
aS'simuCLASS/T_recs_catalogues/catalogue_SFGs_edited_RA.txt'
p109
aa(lp110
S'agncatalogue'
p111
aS'simuCLASS/T_recs_catalogues/catalogue_AGNs_edited_RA.txt'
p112
aatRp113
aa(lp114
S'skymodel'
p115
ag8
((lp116
(lp117
g16
ag115
aa(lp118
S'catalogue_origin'
p119
aS'trecs'
p120
aa(lp121
S'sizes_pdf_file'
p122
aS'sizes_dist.txt'
p123
aa(lp124
S'pixel_scale'
p125
aS'0.045'
p126
aa(lp127
S'field_of_view'
p128
aS'0.00001'
p129
aa(lp130
S'ngals'
p131
aS'-1'
p132
aa(lp133
S'grid'
p134
aS'False'
p135
aa(lp136
S'doagn'
p137
aS'False'
p138
aa(lp139
S'doshear'
p140
aS'False'
p141
aa(lp142
S'pickleagn'
p143
aS'False'
p144
aa(lp145
S'highfluxcut'
p146
aS'False'
p147
aa(lp148
S'highfluxcut_value'
p149
aS'1000.e-6'
p150
aa(lp151
S'lowfluxcut'
p152
aS'True'
p153
aa(lp154
S'lowfluxcut_value'
p155
aS'1e-4'
p156
aa(lp157
S'highsizecut'
p158
aS'False'
p159
aa(lp160
S'highsizecut_value'
p161
aS'10.e0'
p162
aa(lp163
S'lowsizecut'
p164
aS'False'
p165
aa(lp166
S'lowsizecut_value'
p167
aS'0.75e0'
p168
aa(lp169
S'sizefactor'
p170
aS'1.e0'
p171
aa(lp172
S'im3cat'
p173
aS'False'
p174
aa(lp175
S'galaxy_profile'
p176
aS'exponential'
p177
aa(lp178
S'sizescale'
p179
aS'range'
p180
aa(lp181
S'fluxscale'
p182
aS'range'
p183
aa(lp184
S'fluxscale_constant_value'
p185
aS'500.e-6'
p186
aa(lp187
S'flux_factor'
p188
aS'1.e0'
p189
aatRp190
aa(lp191
S'primarybeam'
p192
ag8
((lp193
(lp194
g16
ag192
aa(lp195
S'dopb'
p196
aS'False'
p197
aa(lp198
S'pb_model'
p199
aS"'jackson'"
p200
aa(lp201
S'nstokes'
p202
aS'1'
aa(lp203
S'nfreq'
p204
aS'8'
aatRp205
aa(lp206
S'imager'
p207
ag8
((lp208
(lp209
g16
ag207
aa(lp210
S'type'
p211
aS'wsclean'
p212
aa(lp213
S'algo'
p214
aS'hog'
p215
aa(lp216
S'dopostagestamps'
p217
aS'True'
p218
aa(lp219
S'number_of_iterations'
p220
aS'5000'
p221
aa(lp222
S'n_cores'
p223
aS'20'
p224
aa(lp225
S'threshold'
p226
aS'0.000000025'
p227
aa(lp228
S'weight'
p229
aS'natural'
p230
aatRp231
aatRp232
sS'_dict'
p233
g8
sb.